; Function Attrs: mustprogress uwtable
define hidden { i64, i64 } @_ZN10duckdb_re28Compiler10EmptyWidthENS_7EmptyOpE(ptr noundef nonnull align 8 captures(none) dereferenceable(228) %0, i32 noundef %1) local_unnamed_addr #0 align 2 {
  %3 = alloca %"struct.duckdb_re2::Frag", align 8
  %4 = alloca %"struct.duckdb_re2::Frag", align 8
  %5 = tail call noundef i32 @_ZN10duckdb_re28Compiler9AllocInstEi(ptr noundef nonnull align 8 dereferenceable(228) %0, i32 noundef 1)
  %6 = icmp slt i32 %5, 0
  br i1 %6, label %7, label %8

7:                                                ; preds = %2
  call void @llvm.lifetime.start.p0(i64 16, ptr nonnull %3)
  store i32 0, ptr %3, align 8, !tbaa !71
  %.4..4..4..4..4..sroa_idx = getelementptr inbounds nuw i8, ptr %3, i64 4
  store i64 0, ptr %.4..4..4..4..4..sroa_idx, align 4
  %.12..12..12..12..12..sroa_idx = getelementptr inbounds nuw i8, ptr %3, i64 12
  store i8 0, ptr %.12..12..12..12..12..sroa_idx, align 4, !tbaa !72
  %.0..0..0..0..0..fca.0.load.i = load i64, ptr %3, align 8
  %.8..8..8..8..8..fca.1.gep.sroa_idx = getelementptr inbounds nuw i8, ptr %3, i64 8
  %.8..8..8..8..8..fca.1.load.i = load i64, ptr %.8..8..8..8..8..fca.1.gep.sroa_idx, align 8
  call void @llvm.lifetime.end.p0(i64 16, ptr nonnull %3)
  %.sroa.2.0.extract.trunc = trunc i64 %.8..8..8..8..8..fca.1.load.i to i40
  %.8..8..8..sroa_idx = getelementptr inbounds nuw i8, ptr %4, i64 8
  store i40 %.sroa.2.0.extract.trunc, ptr %.8..8..8..sroa_idx, align 8
  br label %14

8:                                                ; preds = %2
  %9 = zext nneg i32 %5 to i64
  %10 = getelementptr inbounds nuw i8, ptr %0, i64 128
  %11 = load ptr, ptr %10, align 8, !tbaa !55
  %12 = getelementptr inbounds nuw %"class.duckdb_re2::Prog::Inst", ptr %11, i64 %9
  tail call void @_ZN10duckdb_re24Prog4Inst14InitEmptyWidthENS_7EmptyOpEj(ptr noundef nonnull align 4 dereferenceable(8) %12, i32 noundef %1, i32 noundef 0)
  %13 = shl nuw i32 %5, 1
  %.sroa.2.0.insert.ext.i = zext i32 %13 to i64
  %.sroa.0.0.insert.insert.i = mul nuw i64 %.sroa.2.0.insert.ext.i, 4294967297
  store i32 %5, ptr %4, align 8, !tbaa !71
  %.4..4..4..sroa_idx = getelementptr inbounds nuw i8, ptr %4, i64 4
  store i64 %.sroa.0.0.insert.insert.i, ptr %.4..4..4..sroa_idx, align 4
  %.12..12..12..sroa_idx = getelementptr inbounds nuw i8, ptr %4, i64 12
  store i8 1, ptr %.12..12..12..sroa_idx, align 4, !tbaa !72
  %.0..0..0..fca.0.load.pre = load i64, ptr %4, align 8
  br label %14

14:                                               ; preds = %8, %7
  %.0..0..fca.0.load = phi i64 [ %.0..0..0..fca.0.load.pre, %8 ], [ %.0..0..0..0..0..fca.0.load.i, %7 ]
  %.fca.0.insert = insertvalue { i64, i64 } poison, i64 %.0..0..fca.0.load, 0
  %.8..8..8..fca.1.gep.sroa_idx = getelementptr inbounds nuw i8, ptr %4, i64 8
  %.8..8..8..fca.1.load = load i64, ptr %.8..8..8..fca.1.gep.sroa_idx, align 8
  %.fca.1.insert = insertvalue { i64, i64 } %.fca.0.insert, i64 %.8..8..8..fca.1.load, 1
  ret { i64, i64 } %.fca.1.insert
}